
Hexadecimal

Area                               Addr   Size   Decimal Bytes (Attributes)
--------------------------------   ----   ----   ------- ----- ------------
.  .ABS.                           0000   0000 =      0. bytes (ABS,CON)

      Value  Global
   --------  --------------------------------
     0000    l_BIT_BANK
     0000    l_GSINIT1
     0000    l_GSINIT5
     0000    l_ISEG
     0000    l_OSEG
     0000    l_PSEG
     0000    l_REG_BANK_1
     0000    l_REG_BANK_2
     0000    l_REG_BANK_3
     0000    l_RSEG
     0000    l__CODE
     0000    s_BSEG
     0000    s_DSEG
     0000    s_HOME
     0000    s_PSEG
     0000    s_REG_BANK_0
     0000    s_XSEG
     0000    s__CODE
     0002    l_BSEG_BYTES
     0003    l_GSFINAL
     0003    l_GSINIT0
     0004    l_GSINIT
     0008    l_REG_BANK_0
     0008    s_REG_BANK_1
     000A    l_GSINIT2
     000D    l_BSEG
     0010    s_REG_BANK_2
     0011    l_XINIT
     0011    l_XISEG
     0016    l_HOME
     0016    s_GSINIT0
     0018    s_REG_BANK_3
     0019    s_GSINIT1
     0019    s_GSINIT2
     0020    s_BSEG_BYTES
     0022    l_GSINIT3
     0022    s_BIT_BANK
     0022    s_OSEG
     0022    s_RSEG
     0022    s_SSEG
     0023    s_GSINIT3
     002A    l_GSINIT4
     0045    s_GSINIT4
     006F    s_GSINIT
     006F    s_GSINIT5
     0073    l_DSEG
     0073    s_GSFINAL
     0076    s_CSEG
     0080    _P0
     0080    _P0_0
     0080    s_ISEG
     0081    _P0_1
     0081    _SP
     0082    _DPL
     0082    _P0_2
     0083    _DPH
     0083    _P0_3
     0084    _P0_4
     0085    _P0_5
     0086    _P0_6
     0087    _P0_7
     0087    _PCON
     0088    _IT0
     0088    _TCON
     0089    _IE0
     0089    _TMOD
     008A    _IT1
     008A    _TL0
     008B    _IE1
     008B    _TL1
     008C    _TH0
     008C    _TR0
     008D    _TF0
     008D    _TH1
     008E    _AUXR
     008E    _TR1
     008F    _CKCKON0
     008F    _CKCKON1
     008F    _TF1
     0090    _P1
     0090    _P1_0
     0091    _P1_1
     0092    _P1_2
     0093    _P1_3
     0094    _P1_4
     0095    _P1_5
     0096    _P1_6
     0097    _CKRL
     0097    _P1_7
     0098    _RI
     0098    _SCON
     0099    _SBUF
     0099    _TI
     009A    _BRL
     009A    _RB8
     009B    _BDRCON
     009B    _TB8
     009C    _KBLS
     009C    _REN
     009D    _KBE
     009D    _SM2
     009E    _KBF
     009E    _SM1
     009F    _SM0
     00A0    _P2
     00A0    _P2_0
     00A0    __XPAGE
     00A1    _P2_1
     00A2    _AUXR1
     00A2    _P2_2
     00A3    _P2_3
     00A4    _P2_4
     00A5    _P2_5
     00A6    _P2_6
     00A6    _WDTRST
     00A7    _P2_7
     00A7    _WDTPRG
     00A8    _EX0
     00A8    _IE
     00A8    _IEN0
     00A9    _ET0
     00A9    _SADDR
     00AA    _EX1
     00AB    _ET1
     00AC    _ES
     00AD    _ET2
     00AE    _EC
     00AF    _EA
     00B0    _P3
     00B0    _P3_0
     00B0    _RXD
     00B1    _IEN1
     00B1    _P3_1
     00B1    _TXD
     00B2    _INT0
     00B2    _IPL1
     00B2    _P3_2
     00B3    _INT1
     00B3    _IPH1
     00B3    _P3_3
     00B4    _P3_4
     00B4    _T0
     00B5    _P3_5
     00B5    _T1
     00B6    _P3_6
     00B6    _WR
     00B7    _IPH0
     00B7    _P3_7
     00B7    _RD
     00B8    _IP
     00B8    _IPL0
     00B8    _PX0
     00B8    _PX0L
     00B9    _PT0
     00B9    _PT0L
     00B9    _SADEN
     00BA    _PX1
     00BA    _PX1L
     00BB    _PT1
     00BB    _PT1L
     00BC    _PLS
     00BC    _PS
     00BD    _PT2
     00BD    _PT2L
     00BE    _PPCL
     00C0    _P4
     00C0    _P4_0
     00C1    _P4_1
     00C2    _P4_2
     00C3    _P4_3
     00C3    _SPCON
     00C4    _P4_4
     00C4    _SPSTA
     00C5    _P4_5
     00C5    _SPDAT
     00C6    _P4_6
     00C7    _P4_7
     00C8    _CP_RL2
     00C8    _T2CON
     00C8    _T2CON_0
     00C9    _C_T2
     00C9    _T2CON_1
     00C9    _T2MOD
     00CA    _RCAP2L
     00CA    _T2CON_2
     00CA    _TR2
     00CB    _EXEN2
     00CB    _RCAP2H
     00CB    _T2CON_3
     00CC    _T2CON_4
     00CC    _TCLK
     00CC    _TL2
     00CD    _RCLK
     00CD    _T2CON_5
     00CD    _TH2
     00CE    _EXF2
     00CE    _T2CON_6
     00CF    _T2CON_7
     00CF    _TF2
     00D0    _P
     00D0    _PSW
     00D1    _F1
     00D2    _EECON
     00D2    _OV
     00D3    _RS0
     00D4    _RS1
     00D5    _F0
     00D6    _AC
     00D7    _CY
     00D8    _CCF0
     00D8    _CCON
     00D8    _P5
     00D8    _P5_0
     00D9    _CCF1
     00D9    _CMOD
     00D9    _P5_1
     00DA    _CCAPM0
     00DA    _CCF2
     00DA    _P5_2
     00DB    _CCAPM1
     00DB    _CCF3
     00DB    _P5_3
     00DC    _CCAPM2
     00DC    _CCF4
     00DC    _P5_4
     00DD    _CCAPM3
     00DD    _P5_5
     00DE    _CCAPM4
     00DE    _CR
     00DE    _P5_6
     00DE    l_SSEG
     00DF    _CF
     00DF    _P5_7
     00E0    _ACC
     00E9    _CL
     00EA    _CCAP0L
     00EB    _CCAP1L
     00EC    _CCAP2L
     00ED    _CCAP3L
     00EE    _CCAP4L
     00F0    _B
     00F5    _B_5
     00F6    _B_6
     00F7    _B_7
     00F9    _CH
     00FA    _CCAP0H
     00FB    _CCAP1H
     00FC    _CCAP2H
     00FD    _CCAP3H
     00FE    _CCAP4H
     0100    l_IRAM
     0118    l_XSEG
     0118    s_XISEG
     0E53    l_CONST
     355A    l_CSEG
     35D0    s_CONST
     4423    s_XINIT

Hexadecimal

Area                               Addr   Size   Decimal Bytes (Attributes)
--------------------------------   ----   ----   ------- ----- ------------
_CODE                              0000   0000 =      0. bytes (REL,CON)

Hexadecimal

Area                               Addr   Size   Decimal Bytes (Attributes)
--------------------------------   ----   ----   ------- ----- ------------
REG_BANK_0                         0000   0008 =      8. bytes (REL,OVR)

Hexadecimal

Area                               Addr   Size   Decimal Bytes (Attributes)
--------------------------------   ----   ----   ------- ----- ------------
REG_BANK_1                         0008   0000 =      0. bytes (REL,OVR)

Hexadecimal

Area                               Addr   Size   Decimal Bytes (Attributes)
--------------------------------   ----   ----   ------- ----- ------------
REG_BANK_2                         0010   0000 =      0. bytes (REL,OVR)

Hexadecimal

Area                               Addr   Size   Decimal Bytes (Attributes)
--------------------------------   ----   ----   ------- ----- ------------
REG_BANK_3                         0018   0000 =      0. bytes (REL,OVR)

Hexadecimal

Area                               Addr   Size   Decimal Bits  (Attributes)
--------------------------------   ----   ----   ------- ----- ------------
BSEG                               0000   000D =     13. bits  (REL,CON,BIT)

      Value  Global
   --------  --------------------------------
  0B:0000    _DisableFlag
  0B:0001    _CG_Accessed

Hexadecimal

Area                               Addr   Size   Decimal Bytes (Attributes)
--------------------------------   ----   ----   ------- ----- ------------
BSEG_BYTES                         0020   0002 =      2. bytes (REL,CON)

Hexadecimal

Area                               Addr   Size   Decimal Bytes (Attributes)
--------------------------------   ----   ----   ------- ----- ------------
BIT_BANK                           0022   0000 =      0. bytes (REL,OVR)

Hexadecimal

Area                               Addr   Size   Decimal Bytes (Attributes)
--------------------------------   ----   ----   ------- ----- ------------
DSEG                               0000   0073 =    115. bytes (REL,CON)

      Value  Global
   --------  --------------------------------
     0012    _bp

Hexadecimal

Area                               Addr   Size   Decimal Bytes (Attributes)
--------------------------------   ----   ----   ------- ----- ------------
OSEG                               0022   0000 =      0. bytes (REL,OVR)

Hexadecimal

Area                               Addr   Size   Decimal Bytes (Attributes)
--------------------------------   ----   ----   ------- ----- ------------
ISEG                               0080   0000 =      0. bytes (REL,CON)

Hexadecimal

Area                               Addr   Size   Decimal Bytes (Attributes)
--------------------------------   ----   ----   ------- ----- ------------
SSEG                               0022   00DE =    222. bytes (REL,OVR)

      Value  Global
   --------  --------------------------------
     0022    __start__stack

Hexadecimal

Area                               Addr   Size   Decimal Bytes (Attributes)
--------------------------------   ----   ----   ------- ----- ------------
RSEG                               0022   0000 =      0. bytes (REL,CON)

Hexadecimal

Area                               Addr   Size   Decimal Bytes (Attributes)
--------------------------------   ----   ----   ------- ----- ------------
PSEG                               0000   0000 =      0. bytes (REL,CON,PAG,XDATA)

Hexadecimal

Area                               Addr   Size   Decimal Bytes (Attributes)
--------------------------------   ----   ----   ------- ----- ------------
XSEG                               0000   0118 =    280. bytes (REL,CON,XDATA)

      Value  Global
   --------  --------------------------------
  0D:0013    _CG_CharacterWrite_PARM_2
  0D:001F    _RetryAck_PARM_2
  0D:0021    _EPROM_SetBlock_PARM_2
  0D:0024    _EPROM_ByteWrite_PARM_2
  0D:0025    _EPROM_ByteWrite_PARM_3
  0D:0027    _EPROM_ByteRead_PARM_2
  0D:0031    _LCD_gotoxy_PARM_2
  0D:0037    _getBlockAndAddress_PARM_2
  0D:00D3    _getstring_PARM_2
  0D:00D9    _Saved_Address
  0D:00DA    _AlarmCount
  0D:00E6    __gptrput_PARM_2
  0D:00E7    __mulint_PARM_2
  0D:00EB    _vprintf_PARM_2
  0D:00FF    __print_format_PARM_2
  0D:0102    __print_format_PARM_3
  0D:0105    __print_format_PARM_4

Hexadecimal

Area                               Addr   Size   Decimal Bytes (Attributes)
--------------------------------   ----   ----   ------- ----- ------------
XISEG                              0118   0011 =     17. bytes (REL,CON,XDATA)

      Value  Global
   --------  --------------------------------
  0D:0118    _ACK_RETRY
  0D:0119    _mode
  0D:011A    _ExpiredAlarms
  0D:011D    _PCF_Config
  0D:011E    _PCF_ButtonPressed
  0D:011F    _ISR_Count
  0D:0120    _TimeTenths
  0D:0121    _TimeSecsOnes
  0D:0122    _TimeSecsTens
  0D:0123    _TimeMinsOnes
  0D:0124    _TimeMinsTens
  0D:0125    _ActiveAlarms
  0D:0128    _ButtonCount

Hexadecimal

Area                               Addr   Size   Decimal Bytes (Attributes)
--------------------------------   ----   ----   ------- ----- ------------
HOME                               0000   0016 =     22. bytes (REL,CON,CODE)

Hexadecimal

Area                               Addr   Size   Decimal Bytes (Attributes)
--------------------------------   ----   ----   ------- ----- ------------
GSINIT0                            0016   0003 =      3. bytes (REL,CON,CODE)

      Value  Global
   --------  --------------------------------
  0C:0016    __sdcc_gsinit_startup

Hexadecimal

Area                               Addr   Size   Decimal Bytes (Attributes)
--------------------------------   ----   ----   ------- ----- ------------
GSINIT1                            0019   0000 =      0. bytes (REL,CON,CODE)

Hexadecimal

Area                               Addr   Size   Decimal Bytes (Attributes)
--------------------------------   ----   ----   ------- ----- ------------
GSINIT2                            0019   000A =     10. bytes (REL,CON,CODE)

Hexadecimal

Area                               Addr   Size   Decimal Bytes (Attributes)
--------------------------------   ----   ----   ------- ----- ------------
GSINIT3                            0023   0022 =     34. bytes (REL,CON,CODE)

      Value  Global
   --------  --------------------------------
  0C:0023    __mcs51_genXINIT

Hexadecimal

Area                               Addr   Size   Decimal Bytes (Attributes)
--------------------------------   ----   ----   ------- ----- ------------
GSINIT4                            0045   002A =     42. bytes (REL,CON,CODE)

      Value  Global
   --------  --------------------------------
  0C:0045    __mcs51_genRAMCLEAR
  0C:004B    __mcs51_genXRAMCLEAR

Hexadecimal

Area                               Addr   Size   Decimal Bytes (Attributes)
--------------------------------   ----   ----   ------- ----- ------------
GSINIT5                            006F   0000 =      0. bytes (REL,CON,CODE)

Hexadecimal

Area                               Addr   Size   Decimal Bytes (Attributes)
--------------------------------   ----   ----   ------- ----- ------------
GSINIT                             006F   0004 =      4. bytes (REL,CON,CODE)

Hexadecimal

Area                               Addr   Size   Decimal Bytes (Attributes)
--------------------------------   ----   ----   ------- ----- ------------
GSFINAL                            0073   0003 =      3. bytes (REL,CON,CODE)

Hexadecimal

Area                               Addr   Size   Decimal Bytes (Attributes)
--------------------------------   ----   ----   ------- ----- ------------
CSEG                               0076   355A =  13658. bytes (REL,CON,CODE)

      Value  Global
   --------  --------------------------------
  0C:0076    _TestWrite
  0C:00B9    _Custom_Show
  0C:00C9    _Custom_New
  0C:025A    _CG_CharacterWrite
  0C:02DA    _Custom_DrawFlag
  0C:05AA    _RetryAck
  0C:05F9    _EPROM_SetBlock
  0C:0660    _EPROM_ByteWrite
  0C:06AC    _EPROM_ByteRead
  0C:070F    _EPROM_Reset
  0C:0721    _EPROM_Init
  0C:0724    _Clock_Delay
  0C:072D    _Clock_High
  0C:0733    _Clock_Low
  0C:0739    _I2CInit
  0C:073E    _I2CStart
  0C:0743    _I2CRestart
  0C:074D    _I2CStop
  0C:0758    _I2CAck
  0C:0763    _I2CNak
  0C:076E    _I2CSend
  0C:07B9    _I2CRead
  0C:07F8    _LCD_InstructionWrite
  0C:0817    _LCD_DataWrite
  0C:0836    _LCD_SetCGRAMAddress
  0C:0854    _LCD_SetDDRAMAddress
  0C:086F    _LCD_ReadRAM
  0C:0888    _LCD_Puthex
  0C:08C1    _LCD_Busywait
  0C:08D9    _LCD_ReadAddr
  0C:08F6    _LCD_ClearScreen
  0C:08FF    _LCD_gotoaddr
  0C:092E    _LCD_gotoxy
  0C:0965    _LCD_Putch
  0C:0978    _LCD_Putstr
  0C:0A3B    _LCD_Init
  0C:0A4D    _LCD_DisplayEnable
  0C:0A56    _LCD_DisplayDisable
  0C:0A5F    _LCD_Test
  0C:0A7F    __sdcc_program_startup
  0C:0A84    __sdcc_external_startup
  0C:0A8B    _getBlockAndAddress
  0C:0B67    _PCF_Menu
  0C:0BE6    _handlePCFMode
  0C:0CBE    _CG_Menu
  0C:0D52    _handleCGMode
  0C:0E13    _LCD_Menu
  0C:0EFB    _handleLCDMode
  0C:1486    _EEPROM_Menu
  0C:152F    _handleEEPROMMode
  0C:1909    _CLOCK_Menu
  0C:19DC    _handleCLOCKMode
  0C:1C54    _MainMenu
  0C:1D27    _handleMAINMode
  0C:1D88    _handleInput
  0C:1DED    _main
  0C:1FBF    _ext1
  0C:1FD2    _PCF_ReadDevice
  0C:1FF1    _PCF_UpdateDevice
  0C:2007    _PCF_PrintState
  0C:210D    _PCF_SetOutputLow
  0C:2131    _PCF_SetInputOutput
  0C:2154    _PCF_OutputCount
  0C:219F    _PCF_Init
  0C:21B7    _putchar
  0C:21CC    _getchar
  0C:21DB    _Serial_GetInteger
  0C:2306    _Serial_GetHex
  0C:251F    _getstring
  0C:25DC    _Serial_Init
  0C:25ED    _Clock_NewAlarm
  0C:2671    _timer0
  0C:2A4A    _TimerRedraw
  0C:2AAD    _Clock_Stop
  0C:2AB1    _Clock_Start
  0C:2AB5    _Clock_Reset
  0C:2ACE    _Timer0_Init
  0C:2AF9    _Watchdog_Reset
  0C:2B03    _Watchdog_Init
  0C:2B06    _isdigit
  0C:2B23    _atoi
  0C:2C56    __gptrput
  0C:2C6F    __mulint
  0C:2C8F    _islower
  0C:2CAC    _isupper
  0C:2CD6    _vprintf
  0C:2D15    _printf
  0C:2E2E    __print_format
  0C:3561    _strlen
  0C:35B4    __gptrget

Hexadecimal

Area                               Addr   Size   Decimal Bytes (Attributes)
--------------------------------   ----   ----   ------- ----- ------------
CONST                              35D0   0E53 =   3667. bytes (REL,CON,CODE)

      Value  Global
   --------  --------------------------------
  0C:36B4    _LCD_Addr
  0C:36B6    _AddrMap
  0C:36F6    _ASCII_lookup

Hexadecimal

Area                               Addr   Size   Decimal Bytes (Attributes)
--------------------------------   ----   ----   ------- ----- ------------
XINIT                              4423   0011 =     17. bytes (REL,CON,CODE)
ASxxxx Linker V01.70 + NoICE + SDCC Feb 1999,  page 1.

Files Linked      [ module(s) ]

obj\Release\Custom.rel
obj\Release\EPROM.rel
obj\Release\I2c.rel
obj\Release\LCD.rel
obj\Release\main.rel
obj\Release\PCF8574.rel
obj\Release\serial.rel
obj\Release\Timer.rel
obj\Release\Watchdog.rel

Libraries Linked            [   object  file   ]

C:\Program Files (x86)\SDCC\bin\..\lib\large/mcs51.lib    [     crtclear.rel ]
C:\Program Files (x86)\SDCC\bin\..\lib\large/libsdcc.lib    [         _isdigit ]
C:\Program Files (x86)\SDCC\bin\..\lib\large/libsdcc.lib    [            _atoi ]
C:\Program Files (x86)\SDCC\bin\..\lib\large/mcs51.lib    [     crtxinit.rel ]
C:\Program Files (x86)\SDCC\bin\..\lib\large/libsdcc.lib    [         _gptrput ]
C:\Program Files (x86)\SDCC\bin\..\lib\large/libint.lib    [          _mulint ]
C:\Program Files (x86)\SDCC\bin\..\lib\large/mcs51.lib    [    crtxclear.rel ]
C:\Program Files (x86)\SDCC\bin\..\lib\large/libsdcc.lib    [         _islower ]
C:\Program Files (x86)\SDCC\bin\..\lib\large/libsdcc.lib    [         _isupper ]
C:\Program Files (x86)\SDCC\bin\..\lib\large/libsdcc.lib    [          vprintf ]
C:\Program Files (x86)\SDCC\bin\..\lib\large/libsdcc.lib    [     printf_large ]
C:\Program Files (x86)\SDCC\bin\..\lib\large/mcs51.lib    [   crtpagesfr.rel ]
C:\Program Files (x86)\SDCC\bin\..\lib\large/libsdcc.lib    [          _strlen ]
C:\Program Files (x86)\SDCC\bin\..\lib\large/mcs51.lib    [     crtstart.rel ]
C:\Program Files (x86)\SDCC\bin\..\lib\large/libsdcc.lib    [         _gptrget ]
C:\Program Files (x86)\SDCC\bin\..\lib\large/libsdcc.lib    [              _bp ]

ASxxxx Linker V01.70 + NoICE + SDCC Feb 1999,  page 2.

User Base Address Definitions

HOME = 0x0000
ISEG = 0x0080
BSEG = 0x0000

